Certificate:
    Data:
        Version: 3 (0x2)
        Serial Number: 1234567890 (0x499602d2)
        Signature Algorithm: sha256WithRSAEncryption
        Issuer: CN = ca.example.com
        Validity
            Not Before: Jun  4 15:34:29 2024 GMT
            Not After : Jun  4 15:34:29 2025 GMT
        Subject: CN = test.example.com
        Subject Public Key Info:
            Public Key Algorithm: rsaEncryption
                RSA Public-Key: (2048 bit)
                Modulus:
                    00:ab:2d:7f:ab:5b:6f:b6:ba:fc:59:23:d8:2f:24:
                    8d:2a:6f:54:09:e8:64:53:4a:29:56:48:fc:22:d6:
                    c8:b8:0f:6c:9c:3e:45:28:b2:ac:a1:66:8e:54:1f:
                    30:ca:18:51:fc:ec:23:d1:9c:c4:08:ee:30:3e:c4:
                    34:e1:8a:6d:8f:77:78:6f:06:25:cb:85:3f:16:ec:
                    d6:40:2d:a6:f4:0b:0f:2a:a2:c6:fb:8c:2d:99:87:
                    8c:5d:e6:c2:ed:fb:7c:16:a9:72:f4:53:51:ed:0f:
                    d0:b6:0a:7a:56:8c:56:01:f2:65:d1:91:c8:99:1a:
                    2c:cc:26:08:fc:9c:61:7d:8e:33:df:c2:13:82:12:
                    3b:d6:c7:1e:0e:b9:fc:e1:e5:f3:14:b8:78:ed:40:
                    75:6b:d2:92:94:42:19:b4:a1:f3:45:47:81:c8:03:
                    ec:e1:97:0f:31:55:40:1c:01:58:16:04:f5:2a:28:
                    8f:0d:02:ce:49:0d:3c:28:de:e6:da:9c:77:29:40:
                    58:c1:4e:14:51:41:b2:54:ce:28:16:49:fd:e7:ac:
                    60:f1:7b:5c:a3:f6:6f:c0:93:c3:cd:56:72:2a:be:
                    b0:a3:db:e5:09:96:7a:d2:89:b4:1d:e3:d3:37:c2:
                    14:99:e5:31:60:e6:e9:5b:45:c9:2b:4d:7f:8c:5c:
                    44:ef
                Exponent: 65537 (0x10001)
        X509v3 extensions:
            X509v3 Subject Key Identifier: 
                A1:A4:A7:A6:DB:CB:72:5E:1D:E2:91:F5:D3:31:B7:6C:EB:8D:BA:3B
            X509v3 Authority Key Identifier: 
                keyid:A1:A4:A7:A6:DB:CB:72:5E:1D:E2:91:F5:D3:31:B7:6C:EB:8D:BA:3B

            X509v3 Basic Constraints: critical
                CA:TRUE
    Signature Algorithm: sha256WithRSAEncryption
         38:1e:d2:a0:b9:a7:2a:d1:41:14:8a:14:cd:e2:49:ec:3c:55:
         88:a0:cf:c8:66:30:9f:a2:c8:b9:28:25:0b:5f:ab:b5:47:b7:
         0b:69:db:ce:bb:1b:8b:3d:fe:46:af:8e:c2:37:c9:a4:3b:c9:
         f1:3e:03:4d:31:b1:94:69:cc:df:97:be:4b:33:6e:6a:7a:29:
         b2:f5:b6:72:55:67:c7:99:48:ec:35:c7:75:ca:56:f0:dc:1d:
         17:4a:fc:33:bd:07:09:e0:f8:07:ee:ea:7c:17:3f:68:d7:f6:
         ad:be:57:63:ed:f1:1c:36:0e:f9:18:ee:ba:22:d8:d5:b3:c6:
         2e:df:67:4a:d3:1c:b3:2a:1d:8b:61:51:80:08:31:14:6c:ca:
         63:49:5f:5d:a6:57:55:09:89:6e:6b:39:37:3e:d7:72:3f:67:
         ac:b4:5d:10:ef:f8:58:18:36:03:ed:dd:b9:09:f6:fc:9a:42:
         6a:50:ff:aa:42:ba:d4:57:48:0e:69:e0:8e:ba:87:9e:8b:73:
         82:62:53:8a:bc:be:9d:3d:8e:72:74:88:da:12:8b:15:de:30:
         44:5e:96:95:a5:0b:fb:0b:41:b0:09:e9:56:86:a0:97:aa:e3:
         33:67:5a:83:7c:45:89:d7:be:12:bd:db:3c:36:19:84:65:8d:
         e2:8c:a7:20:ea:c2:21:1f:06:4c:da:f1:f7:60:f7:be:40:8f:
         18:a9:ff:e9:a5:25:c2:63:58:b1:4a:88:6c:70:66:1e:e5:f9:
         3b:82:4d:09:fc:69:93:db:3b:65:94:8e:9c:ee:3e:0c:b6:f0:
         2d:4f:d2:a8:6b:06:0c:7d:a6:5b:69:36:3c:f8:a9:3e:e4:72:
         c0:aa:d3:a4:b9:8f:11:78:3e:19:93:14:f9:b4:e4:e4:c1:37:
         e6:4b:8b:8a:44:24:0f:02:77:67:d4:7b:ff:28:03:e8:51:d2:
         a8:e7:db:67:75:5f:8d:7f:de:9d:40:be:ef:5c:96:c4:89:62:
         94:a4:21:96:9e:04:c0:b9:d8:18:63:1d:e9:c9:50:9b:f0:f1:
         c0:94:6f:f3:c2:7d:3d:b4:31:fa:39:00:01:5b:a4:a4:58:fe:
         a8:51:c9:65:19:fb:be:d1:e6:c1:6a:cc:ff:85:3c:87:b6:c5:
         d6:ff:97:fb:0b:ea:22:02:66:8b:e4:d9:af:39:bd:17:2c:9b:
         29:94:f7:7b:28:f3:0e:f2:75:23:41:98:7d:49:e5:c8:26:3d:
         c8:9b:0c:7f:60:13:0f:b0:d1:46:77:61:9f:15:91:15:2c:c5:
         2a:bf:bf:6c:c7:65:d6:4f:88:bb:bb:4f:26:90:ca:8d:4b:27:
         e6:3d:b8:98:8f:bf:5f:6e
-----BEGIN CERTIFICATE-----
MIIEBTCCAe2gAwIBAgIESZYC0jANBgkqhkiG9w0BAQsFADAZMRcwFQYDVQQDDA5j
YS5leGFtcGxlLmNvbTAeFw0yNDA2MDQxNTM0MjlaFw0yNTA2MDQxNTM0MjlaMBsx
GTAXBgNVBAMMEHRlc3QuZXhhbXBsZS5jb20wggEiMA0GCSqGSIb3DQEBAQUAA4IB
DwAwggEKAoIBAQCrLX+rW2+2uvxZI9gvJI0qb1QJ6GRTSilWSPwi1si4D2ycPkUo
sqyhZo5UHzDKGFH87CPRnMQI7jA+xDThim2Pd3hvBiXLhT8W7NZALab0Cw8qosb7
jC2Zh4xd5sLt+3wWqXL0U1HtD9C2CnpWjFYB8mXRkciZGizMJgj8nGF9jjPfwhOC
EjvWxx4Oufzh5fMUuHjtQHVr0pKUQhm0ofNFR4HIA+zhlw8xVUAcAVgWBPUqKI8N
As5JDTwo3ubanHcpQFjBThRRQbJUzigWSf3nrGDxe1yj9m/Ak8PNVnIqvrCj2+UJ
lnrSibQd49M3whSZ5TFg5ulbRckrTX+MXETvAgMBAAGjUzBRMB0GA1UdDgQWBBSh
pKem28tyXh3ikfXTMbds6426OzAfBgNVHSMEGDAWgBShpKem28tyXh3ikfXTMbds
6426OzAPBgNVHRMBAf8EBTADAQH/MA0GCSqGSIb3DQEBCwUAA4ICAQA4HtKguacq
0UEUihTN4knsPFWIoM/IZjCfosi5KCULX6u1R7cLadvOuxuLPf5Gr47CN8mkO8nx
PgNNMbGUaczfl75LM25qeimy9bZyVWfHmUjsNcd1ylbw3B0XSvwzvQcJ4PgH7up8
Fz9o1/atvldj7fEcNg75GO66ItjVs8Yu32dK0xyzKh2LYVGACDEUbMpjSV9dpldV
CYluazk3PtdyP2estF0Q7/hYGDYD7d25Cfb8mkJqUP+qQrrUV0gOaeCOuoeei3OC
YlOKvL6dPY5ydIjaEosV3jBEXpaVpQv7C0GwCelWhqCXquMzZ1qDfEWJ174Svds8
NhmEZY3ijKcg6sIhHwZM2vH3YPe+QI8Yqf/ppSXCY1ixSohscGYe5fk7gk0J/GmT
2ztllI6c7j4MtvAtT9KoawYMfaZbaTY8+Kk+5HLAqtOkuY8ReD4ZkxT5tOTkwTfm
S4uKRCQPAndn1Hv/KAPoUdKo59tndV+Nf96dQL7vXJbEiWKUpCGWngTAudgYYx3p
yVCb8PHAlG/zwn09tDH6OQABW6SkWP6oUcllGfu+0ebBasz/hTyHtsXW/5f7C+oi
AmaL5NmvOb0XLJsplPd7KPMO8nUjQZh9SeXIJj3Imwx/YBMPsNFGd2GfFZEVLMUq
v79sx2XWT4i7u08mkMqNSyfmPbiYj79fbg==
-----END CERTIFICATE-----
