Certificate:
    Data:
        Version: 1 (0x0)
        Serial Number:
            04:3f:d4:2e:73:d7:2e:e4:39:8d:9b:8a:3b:3d:37:8f:35:6e:40:4e
        Signature Algorithm: NULL
        Issuer: CN = ca.example.com
        Validity
            Not Before: Jun  4 15:34:31 2024 GMT
            Not After : Jul  4 15:34:31 2024 GMT
        Subject: CN = b.example.com
        Subject Public Key Info:
            Public Key Algorithm: rsaEncryption
                RSA Public-Key: (4096 bit)
                Modulus:
                    00:df:09:4c:c4:74:1a:5c:8c:12:20:89:9e:ad:fa:
                    ac:3c:0d:a0:a6:09:2e:0d:a1:11:e2:a5:75:a5:f1:
                    0d:24:40:00:34:bf:26:69:25:2e:6d:ed:c3:60:ad:
                    3b:df:c4:a4:ee:cb:77:68:75:fc:93:46:27:b6:b6:
                    7e:f3:3b:ab:cc:31:1c:e2:78:c0:db:ea:9d:ef:8c:
                    e1:96:4b:c8:94:23:a0:36:3b:a8:09:f7:c5:42:92:
                    0e:38:ac:5c:32:d9:df:4d:7e:c1:c0:11:4c:91:9e:
                    0e:4d:95:d1:c0:b9:95:33:63:48:71:92:a2:30:07:
                    cf:ad:99:26:f7:2a:02:31:c2:32:f9:a1:bf:6d:98:
                    dd:c7:4c:7a:d5:51:2b:ac:83:18:f6:20:d2:b3:cd:
                    a6:00:b7:70:51:a0:d1:03:81:29:0e:38:6d:c3:6d:
                    d2:1f:b3:7e:46:9b:51:e3:0a:1e:4c:5b:0b:30:f5:
                    fe:a4:a0:2c:70:d1:1e:c6:5b:c0:c8:26:b8:b2:de:
                    ef:c3:8c:d8:89:38:54:ac:fb:f8:eb:b7:59:7e:5a:
                    bf:11:f1:0a:e2:35:55:73:01:65:d3:3b:86:37:ad:
                    fa:4e:8a:10:0b:77:db:c6:a7:9a:c0:02:c9:f8:30:
                    bc:35:47:03:1c:0c:dd:91:60:20:1e:b4:77:39:08:
                    a0:be:1b:ce:e8:b2:60:85:45:61:5e:a4:ae:16:d8:
                    0a:40:bb:28:ec:6b:5d:99:da:8b:b5:68:6a:a5:0a:
                    b1:90:03:aa:a2:e0:56:65:28:07:c5:99:e6:72:0f:
                    3b:a8:c1:36:f2:f1:a6:fe:05:46:be:01:c6:fa:d6:
                    f9:11:e5:6a:a8:d0:bf:ad:86:c1:34:8b:34:bd:a6:
                    d3:30:ef:0b:43:b5:ea:b1:0d:83:a8:c5:02:1f:23:
                    b5:b2:2c:29:a6:3d:ca:7b:26:61:0e:75:86:6b:e4:
                    76:13:54:6d:c4:59:1f:9d:13:4c:6e:64:b8:68:45:
                    5d:17:13:7f:5c:3c:a5:2e:bb:0c:16:89:4c:b5:e9:
                    48:15:56:9d:b0:f4:85:7d:d3:7f:5e:26:60:4f:c3:
                    e7:8c:e7:f8:95:61:a9:26:d1:33:a9:1a:4a:f0:00:
                    5a:d6:6f:a8:7b:27:b0:17:61:35:ab:8d:3e:96:4a:
                    fb:7b:a5:68:6d:9d:91:33:f8:c2:78:0f:cc:29:79:
                    87:16:d2:05:0a:3e:15:1a:0e:29:e0:f4:95:35:59:
                    dd:3f:0c:e9:0d:79:0f:75:a1:13:dc:ee:37:97:e2:
                    64:8c:c5:83:e5:d6:bc:94:e4:9b:7b:60:ee:8d:0c:
                    06:76:6b:9d:25:b4:d4:6f:6c:82:fd:a2:36:8a:cf:
                    7b:f4:c7
                Exponent: 65537 (0x10001)
    Signature Algorithm: NULL
-----BEGIN CERTIFICATE-----
MIIEuDCCAqACFHLxqfo9nwnaQCxOi+aoaAlUBiW2MA0GCSqGSIb3DQEBCwUAMBkx
FzAVBgNVBAMMDmNhLmV4YW1wbGUuY29tMB4XDTI0MDYwNDE1MzQzMVoXDTI0MDcw
NDE1MzQzMVowGDEWMBQGA1UEAwwNYi5leGFtcGxlLmNvbTCCAiIwDQYJKoZIhvcN
AQEBBQADggIPADCCAgoCggIBAN8JTMR0GlyMEiCJnq36rDwNoKYJLg2hEeKldaXx
DSRAADS/JmklLm3tw2CtO9/EpO7Ld2h1/JNGJ7a2fvM7q8wxHOJ4wNvqne+M4ZZL
yJQjoDY7qAn3xUKSDjisXDLZ301+wcARTJGeDk2V0cC5lTNjSHGSojAHz62ZJvcq
AjHCMvmhv22Y3cdMetVRK6yDGPYg0rPNpgC3cFGg0QOBKQ44bcNt0h+zfkabUeMK
HkxbCzD1/qSgLHDRHsZbwMgmuLLe78OM2Ik4VKz7+Ou3WX5avxHxCuI1VXMBZdM7
hjet+k6KEAt328anmsACyfgwvDVHAxwM3ZFgIB60dzkIoL4bzuiyYIVFYV6krhbY
CkC7KOxrXZnai7VoaqUKsZADqqLgVmUoB8WZ5nIPO6jBNvLxpv4FRr4BxvrW+RHl
aqjQv62GwTSLNL2m0zDvC0O16rENg6jFAh8jtbIsKaY9ynsmYQ51hmvkdhNUbcRZ
H50TTG5kuGhFXRcTf1w8pS67DBaJTLXpSBVWnbD0hX3Tf14mYE/D54zn+JVhqSbR
M6kaSvAAWtZvqHsnsBdhNauNPpZK+3ulaG2dkTP4wngPzCl5hxbSBQo+FRoOKeD0
lTVZ3T8M6Q15D3WhE9zuN5fiZIzFg+XWvJTkm3tg7o0MBnZrnSW01G9sgv2iNorP
e/THAgMBAAEwDQYJKoZIhvcNAQELBQADggIBAJCqEQ1eCsTKiCzhF9cfMDypE1IH
OWh+DsobhT6GRXU9Tzt/XgfLWdsh/AjN6cRs0A/TSF9tSbIqyhGga2eDt4RJ1W1P
lxZjfG9Wf+4PI0UxeCl/CkfE0NW0qMUl3Td7KwN2JqBoKqefqesBX2HYvhWRKtl4
XLJsT5UAHV4i586bzcza+5H46KNFjb5EiEW+WLK6UF0AE11poBMFaOGHwa6YgQ3t
ItNBPadTu6wkhQ5EZXPshAJyIkG2D3KmAXSDBFhrgwcggQgYwpUsNXpDlNITOH6S
q4GfBZdw7+ccwvAJUvjk6a2EtA/29ps+ithY6YnaZ9cF97C3js/E+KlxTICRdKEi
TX02FhJlmRMqZALP2WDwlAnMawkFQBcACabTB6ZM3+TwH0hd7S0jXOofUB1nKW8k
ZQztys/6Uacz+5a83VAqxUblvivJBfq+tyW0GwHg/F/JhBZ13lvryhVgsPdFEzLo
6WE0FVXJA6E5L9MiC+bbKQ9ShJ7AeVa9Go8Q8kzpOBzKeM6uIQ3uTLhqa3+rmBA9
FD7YmGa04nHDFNeAdPAd51eUsZbYNcb+hhgStGHs5L9yfj2gFlLKnKD7dtZjN7tn
gXpA/Wj+JYPsnNzzqDkNP9CctWa7wWQKvcEAayWsE02jsVZ8sq5dd2N1+G5XRi0s
l9csQ6r/9jo1iXji
-----END CERTIFICATE-----
